target datalayout = "e-m:e-p270:32:32-p271:32:32-p272:64:64-i64:64-i128:128-f80:128-n8:16:32:64-S128"
target triple = "x86_64-pc-linux-gnu"

%class.ProcSmapsParser = type { ptr, i64, ptr }
%struct.ProcSmapsInfo = type { ptr, ptr, [21 x i8], [1025 x i8], i64, i64, i64, i64, i64, i64, i8, i8, i8, i8, i8, i8, i8, i8 }

@.str.4 = private unnamed_addr constant [23 x i8] c"KernelPageSize: %zu kB\00", align 1
@.str.5 = private unnamed_addr constant [12 x i8] c"Rss: %zu kB\00", align 1
@.str.6 = private unnamed_addr constant [22 x i8] c"AnonHugePages: %zu kB\00", align 1
@.str.7 = private unnamed_addr constant [24 x i8] c"Private_Hugetlb: %zu kB\00", align 1
@.str.8 = private unnamed_addr constant [23 x i8] c"Shared_Hugetlb: %zu kB\00", align 1
@.str.9 = private unnamed_addr constant [13 x i8] c"Swap: %zu kB\00", align 1
@.str.10 = private unnamed_addr constant [9 x i8] c"VmFlags:\00", align 1
@.str.11 = private unnamed_addr constant [4 x i8] c" rd\00", align 1
@.str.12 = private unnamed_addr constant [4 x i8] c" wr\00", align 1
@.str.13 = private unnamed_addr constant [4 x i8] c" ex\00", align 1
@.str.14 = private unnamed_addr constant [4 x i8] c" nr\00", align 1
@.str.15 = private unnamed_addr constant [4 x i8] c" sh\00", align 1
@.str.16 = private unnamed_addr constant [4 x i8] c" hg\00", align 1
@.str.17 = private unnamed_addr constant [4 x i8] c" ht\00", align 1
@.str.18 = private unnamed_addr constant [4 x i8] c" nh\00", align 1

; Function Attrs: mustprogress nounwind uwtable
define hidden void @_ZN15ProcSmapsParser20scan_additional_lineER13ProcSmapsInfo(ptr noundef nonnull align 8 dereferenceable(24) %0, ptr noundef nonnull align 8 dereferenceable(1120) %1) #1 align 2 {
  %3 = alloca ptr, align 8
  %4 = alloca ptr, align 8
  %5 = alloca i32, align 4
  store ptr %0, ptr %3, align 8
  store ptr %1, ptr %4, align 8
  %6 = load ptr, ptr %3, align 8
  %7 = getelementptr inbounds %class.ProcSmapsParser, ptr %6, i32 0, i32 2
  %8 = load ptr, ptr %7, align 8
  %9 = load ptr, ptr %4, align 8
  %10 = getelementptr inbounds %struct.ProcSmapsInfo, ptr %9, i32 0, i32 4
  %11 = call i32 (ptr, ptr, ...) @__isoc99_sscanf(ptr noundef %8, ptr noundef @.str.4, ptr noundef %10) #5
  %12 = icmp eq i32 %11, 1
  br i1 %12, label %13, label %18

13:                                               ; preds = %2
  %14 = load ptr, ptr %4, align 8
  %15 = getelementptr inbounds %struct.ProcSmapsInfo, ptr %14, i32 0, i32 4
  %16 = load i64, ptr %15, align 8
  %17 = mul i64 %16, 1024
  store i64 %17, ptr %15, align 8
  br label %148

18:                                               ; preds = %2
  %19 = getelementptr inbounds %class.ProcSmapsParser, ptr %6, i32 0, i32 2
  %20 = load ptr, ptr %19, align 8
  %21 = load ptr, ptr %4, align 8
  %22 = getelementptr inbounds %struct.ProcSmapsInfo, ptr %21, i32 0, i32 5
  %23 = call i32 (ptr, ptr, ...) @__isoc99_sscanf(ptr noundef %20, ptr noundef @.str.5, ptr noundef %22) #5
  %24 = icmp eq i32 %23, 1
  br i1 %24, label %25, label %30

25:                                               ; preds = %18
  %26 = load ptr, ptr %4, align 8
  %27 = getelementptr inbounds %struct.ProcSmapsInfo, ptr %26, i32 0, i32 5
  %28 = load i64, ptr %27, align 8
  %29 = mul i64 %28, 1024
  store i64 %29, ptr %27, align 8
  br label %148

30:                                               ; preds = %18
  %31 = getelementptr inbounds %class.ProcSmapsParser, ptr %6, i32 0, i32 2
  %32 = load ptr, ptr %31, align 8
  %33 = load ptr, ptr %4, align 8
  %34 = getelementptr inbounds %struct.ProcSmapsInfo, ptr %33, i32 0, i32 8
  %35 = call i32 (ptr, ptr, ...) @__isoc99_sscanf(ptr noundef %32, ptr noundef @.str.6, ptr noundef %34) #5
  %36 = icmp eq i32 %35, 1
  br i1 %36, label %37, label %42

37:                                               ; preds = %30
  %38 = load ptr, ptr %4, align 8
  %39 = getelementptr inbounds %struct.ProcSmapsInfo, ptr %38, i32 0, i32 8
  %40 = load i64, ptr %39, align 8
  %41 = mul i64 %40, 1024
  store i64 %41, ptr %39, align 8
  br label %148

42:                                               ; preds = %30
  %43 = getelementptr inbounds %class.ProcSmapsParser, ptr %6, i32 0, i32 2
  %44 = load ptr, ptr %43, align 8
  %45 = load ptr, ptr %4, align 8
  %46 = getelementptr inbounds %struct.ProcSmapsInfo, ptr %45, i32 0, i32 6
  %47 = call i32 (ptr, ptr, ...) @__isoc99_sscanf(ptr noundef %44, ptr noundef @.str.7, ptr noundef %46) #5
  %48 = icmp eq i32 %47, 1
  br i1 %48, label %49, label %54

49:                                               ; preds = %42
  %50 = load ptr, ptr %4, align 8
  %51 = getelementptr inbounds %struct.ProcSmapsInfo, ptr %50, i32 0, i32 6
  %52 = load i64, ptr %51, align 8
  %53 = mul i64 %52, 1024
  store i64 %53, ptr %51, align 8
  br label %148

54:                                               ; preds = %42
  %55 = getelementptr inbounds %class.ProcSmapsParser, ptr %6, i32 0, i32 2
  %56 = load ptr, ptr %55, align 8
  %57 = load ptr, ptr %4, align 8
  %58 = getelementptr inbounds %struct.ProcSmapsInfo, ptr %57, i32 0, i32 7
  %59 = call i32 (ptr, ptr, ...) @__isoc99_sscanf(ptr noundef %56, ptr noundef @.str.8, ptr noundef %58) #5
  %60 = icmp eq i32 %59, 1
  br i1 %60, label %61, label %66

61:                                               ; preds = %54
  %62 = load ptr, ptr %4, align 8
  %63 = getelementptr inbounds %struct.ProcSmapsInfo, ptr %62, i32 0, i32 7
  %64 = load i64, ptr %63, align 8
  %65 = mul i64 %64, 1024
  store i64 %65, ptr %63, align 8
  br label %148

66:                                               ; preds = %54
  %67 = getelementptr inbounds %class.ProcSmapsParser, ptr %6, i32 0, i32 2
  %68 = load ptr, ptr %67, align 8
  %69 = load ptr, ptr %4, align 8
  %70 = getelementptr inbounds %struct.ProcSmapsInfo, ptr %69, i32 0, i32 9
  %71 = call i32 (ptr, ptr, ...) @__isoc99_sscanf(ptr noundef %68, ptr noundef @.str.9, ptr noundef %70) #5
  %72 = icmp eq i32 %71, 1
  br i1 %72, label %73, label %78

73:                                               ; preds = %66
  %74 = load ptr, ptr %4, align 8
  %75 = getelementptr inbounds %struct.ProcSmapsInfo, ptr %74, i32 0, i32 9
  %76 = load i64, ptr %75, align 8
  %77 = mul i64 %76, 1024
  store i64 %77, ptr %75, align 8
  br label %148

78:                                               ; preds = %66
  store i32 0, ptr %5, align 4
  %79 = getelementptr inbounds %class.ProcSmapsParser, ptr %6, i32 0, i32 2
  %80 = load ptr, ptr %79, align 8
  %81 = call i32 @strncmp(ptr noundef %80, ptr noundef @.str.10, i64 noundef 8) #6
  %82 = icmp eq i32 %81, 0
  br i1 %82, label %83, label %148

83:                                               ; preds = %78
  %84 = getelementptr inbounds %class.ProcSmapsParser, ptr %6, i32 0, i32 2
  %85 = load ptr, ptr %84, align 8
  %86 = getelementptr inbounds i8, ptr %85, i64 8
  %87 = call noundef ptr @strstr(ptr noundef %86, ptr noundef @.str.11) #6
  %88 = icmp ne ptr %87, null
  %89 = load ptr, ptr %4, align 8
  %90 = getelementptr inbounds %struct.ProcSmapsInfo, ptr %89, i32 0, i32 10
  %91 = zext i1 %88 to i8
  store i8 %91, ptr %90, align 8
  %92 = getelementptr inbounds %class.ProcSmapsParser, ptr %6, i32 0, i32 2
  %93 = load ptr, ptr %92, align 8
  %94 = getelementptr inbounds i8, ptr %93, i64 8
  %95 = call noundef ptr @strstr(ptr noundef %94, ptr noundef @.str.12) #6
  %96 = icmp ne ptr %95, null
  %97 = load ptr, ptr %4, align 8
  %98 = getelementptr inbounds %struct.ProcSmapsInfo, ptr %97, i32 0, i32 11
  %99 = zext i1 %96 to i8
  store i8 %99, ptr %98, align 1
  %100 = getelementptr inbounds %class.ProcSmapsParser, ptr %6, i32 0, i32 2
  %101 = load ptr, ptr %100, align 8
  %102 = getelementptr inbounds i8, ptr %101, i64 8
  %103 = call noundef ptr @strstr(ptr noundef %102, ptr noundef @.str.13) #6
  %104 = icmp ne ptr %103, null
  %105 = load ptr, ptr %4, align 8
  %106 = getelementptr inbounds %struct.ProcSmapsInfo, ptr %105, i32 0, i32 12
  %107 = zext i1 %104 to i8
  store i8 %107, ptr %106, align 2
  %108 = getelementptr inbounds %class.ProcSmapsParser, ptr %6, i32 0, i32 2
  %109 = load ptr, ptr %108, align 8
  %110 = getelementptr inbounds i8, ptr %109, i64 8
  %111 = call noundef ptr @strstr(ptr noundef %110, ptr noundef @.str.14) #6
  %112 = icmp ne ptr %111, null
  %113 = load ptr, ptr %4, align 8
  %114 = getelementptr inbounds %struct.ProcSmapsInfo, ptr %113, i32 0, i32 14
  %115 = zext i1 %112 to i8
  store i8 %115, ptr %114, align 4
  %116 = getelementptr inbounds %class.ProcSmapsParser, ptr %6, i32 0, i32 2
  %117 = load ptr, ptr %116, align 8
  %118 = getelementptr inbounds i8, ptr %117, i64 8
  %119 = call noundef ptr @strstr(ptr noundef %118, ptr noundef @.str.15) #6
  %120 = icmp ne ptr %119, null
  %121 = load ptr, ptr %4, align 8
  %122 = getelementptr inbounds %struct.ProcSmapsInfo, ptr %121, i32 0, i32 13
  %123 = zext i1 %120 to i8
  store i8 %123, ptr %122, align 1
  %124 = getelementptr inbounds %class.ProcSmapsParser, ptr %6, i32 0, i32 2
  %125 = load ptr, ptr %124, align 8
  %126 = getelementptr inbounds i8, ptr %125, i64 8
  %127 = call noundef ptr @strstr(ptr noundef %126, ptr noundef @.str.16) #6
  %128 = icmp ne ptr %127, null
  %129 = load ptr, ptr %4, align 8
  %130 = getelementptr inbounds %struct.ProcSmapsInfo, ptr %129, i32 0, i32 15
  %131 = zext i1 %128 to i8
  store i8 %131, ptr %130, align 1
  %132 = getelementptr inbounds %class.ProcSmapsParser, ptr %6, i32 0, i32 2
  %133 = load ptr, ptr %132, align 8
  %134 = getelementptr inbounds i8, ptr %133, i64 8
  %135 = call noundef ptr @strstr(ptr noundef %134, ptr noundef @.str.17) #6
  %136 = icmp ne ptr %135, null
  %137 = load ptr, ptr %4, align 8
  %138 = getelementptr inbounds %struct.ProcSmapsInfo, ptr %137, i32 0, i32 16
  %139 = zext i1 %136 to i8
  store i8 %139, ptr %138, align 2
  %140 = getelementptr inbounds %class.ProcSmapsParser, ptr %6, i32 0, i32 2
  %141 = load ptr, ptr %140, align 8
  %142 = getelementptr inbounds i8, ptr %141, i64 8
  %143 = call noundef ptr @strstr(ptr noundef %142, ptr noundef @.str.18) #6
  %144 = icmp ne ptr %143, null
  %145 = load ptr, ptr %4, align 8
  %146 = getelementptr inbounds %struct.ProcSmapsInfo, ptr %145, i32 0, i32 17
  %147 = zext i1 %144 to i8
  store i8 %147, ptr %146, align 1
  br label %148

148:                                              ; preds = %83, %78, %73, %61, %49, %37, %25, %13
  ret void
}