; Function Attrs: mustprogress nofree nounwind uwtable
define hidden void @_ZN15ProcSmapsParser20scan_additional_lineER13ProcSmapsInfo(ptr nocapture noundef nonnull readonly align 8 dereferenceable(24) %0, ptr noundef nonnull align 8 dereferenceable(1120) %1) local_unnamed_addr #2 align 2 {
  %3 = getelementptr inbounds i8, ptr %0, i64 16
  %4 = load ptr, ptr %3, align 8
  %5 = getelementptr inbounds i8, ptr %1, i64 1064
  %6 = tail call i32 (ptr, ptr, ...) @__isoc99_sscanf(ptr noundef %4, ptr noundef nonnull @.str.4, ptr noundef nonnull %5) #7
  %7 = icmp eq i32 %6, 1
  br i1 %7, label %8, label %11

8:                                                ; preds = %2
  %9 = load i64, ptr %5, align 8
  %10 = shl i64 %9, 10
  store i64 %10, ptr %5, align 8
  br label %103

11:                                               ; preds = %2
  %12 = load ptr, ptr %3, align 8
  %13 = getelementptr inbounds i8, ptr %1, i64 1072
  %14 = tail call i32 (ptr, ptr, ...) @__isoc99_sscanf(ptr noundef %12, ptr noundef nonnull @.str.5, ptr noundef nonnull %13) #7
  %15 = icmp eq i32 %14, 1
  br i1 %15, label %16, label %19

16:                                               ; preds = %11
  %17 = load i64, ptr %13, align 8
  %18 = shl i64 %17, 10
  store i64 %18, ptr %13, align 8
  br label %103

19:                                               ; preds = %11
  %20 = load ptr, ptr %3, align 8
  %21 = getelementptr inbounds i8, ptr %1, i64 1096
  %22 = tail call i32 (ptr, ptr, ...) @__isoc99_sscanf(ptr noundef %20, ptr noundef nonnull @.str.6, ptr noundef nonnull %21) #7
  %23 = icmp eq i32 %22, 1
  br i1 %23, label %24, label %27

24:                                               ; preds = %19
  %25 = load i64, ptr %21, align 8
  %26 = shl i64 %25, 10
  store i64 %26, ptr %21, align 8
  br label %103

27:                                               ; preds = %19
  %28 = load ptr, ptr %3, align 8
  %29 = getelementptr inbounds i8, ptr %1, i64 1080
  %30 = tail call i32 (ptr, ptr, ...) @__isoc99_sscanf(ptr noundef %28, ptr noundef nonnull @.str.7, ptr noundef nonnull %29) #7
  %31 = icmp eq i32 %30, 1
  br i1 %31, label %32, label %35

32:                                               ; preds = %27
  %33 = load i64, ptr %29, align 8
  %34 = shl i64 %33, 10
  store i64 %34, ptr %29, align 8
  br label %103

35:                                               ; preds = %27
  %36 = load ptr, ptr %3, align 8
  %37 = getelementptr inbounds i8, ptr %1, i64 1088
  %38 = tail call i32 (ptr, ptr, ...) @__isoc99_sscanf(ptr noundef %36, ptr noundef nonnull @.str.8, ptr noundef nonnull %37) #7
  %39 = icmp eq i32 %38, 1
  br i1 %39, label %40, label %43

40:                                               ; preds = %35
  %41 = load i64, ptr %37, align 8
  %42 = shl i64 %41, 10
  store i64 %42, ptr %37, align 8
  br label %103

43:                                               ; preds = %35
  %44 = load ptr, ptr %3, align 8
  %45 = getelementptr inbounds i8, ptr %1, i64 1104
  %46 = tail call i32 (ptr, ptr, ...) @__isoc99_sscanf(ptr noundef %44, ptr noundef nonnull @.str.9, ptr noundef nonnull %45) #7
  %47 = icmp eq i32 %46, 1
  br i1 %47, label %48, label %51

48:                                               ; preds = %43
  %49 = load i64, ptr %45, align 8
  %50 = shl i64 %49, 10
  store i64 %50, ptr %45, align 8
  br label %103

51:                                               ; preds = %43
  %52 = load ptr, ptr %3, align 8
  %53 = tail call i32 @strncmp(ptr noundef nonnull dereferenceable(1) %52, ptr noundef nonnull dereferenceable(9) @.str.10, i64 noundef 8) #8
  %54 = icmp eq i32 %53, 0
  br i1 %54, label %55, label %103

55:                                               ; preds = %51
  %56 = getelementptr inbounds i8, ptr %52, i64 8
  %57 = tail call noundef ptr @strstr(ptr noundef nonnull dereferenceable(1) %56, ptr noundef nonnull dereferenceable(1) @.str.11) #8
  %58 = icmp ne ptr %57, null
  %59 = getelementptr inbounds i8, ptr %1, i64 1112
  %60 = zext i1 %58 to i8
  store i8 %60, ptr %59, align 8
  %61 = load ptr, ptr %3, align 8
  %62 = getelementptr inbounds i8, ptr %61, i64 8
  %63 = tail call noundef ptr @strstr(ptr noundef nonnull dereferenceable(1) %62, ptr noundef nonnull dereferenceable(1) @.str.12) #8
  %64 = icmp ne ptr %63, null
  %65 = getelementptr inbounds i8, ptr %1, i64 1113
  %66 = zext i1 %64 to i8
  store i8 %66, ptr %65, align 1
  %67 = load ptr, ptr %3, align 8
  %68 = getelementptr inbounds i8, ptr %67, i64 8
  %69 = tail call noundef ptr @strstr(ptr noundef nonnull dereferenceable(1) %68, ptr noundef nonnull dereferenceable(1) @.str.13) #8
  %70 = icmp ne ptr %69, null
  %71 = getelementptr inbounds i8, ptr %1, i64 1114
  %72 = zext i1 %70 to i8
  store i8 %72, ptr %71, align 2
  %73 = load ptr, ptr %3, align 8
  %74 = getelementptr inbounds i8, ptr %73, i64 8
  %75 = tail call noundef ptr @strstr(ptr noundef nonnull dereferenceable(1) %74, ptr noundef nonnull dereferenceable(1) @.str.14) #8
  %76 = icmp ne ptr %75, null
  %77 = getelementptr inbounds i8, ptr %1, i64 1116
  %78 = zext i1 %76 to i8
  store i8 %78, ptr %77, align 4
  %79 = load ptr, ptr %3, align 8
  %80 = getelementptr inbounds i8, ptr %79, i64 8
  %81 = tail call noundef ptr @strstr(ptr noundef nonnull dereferenceable(1) %80, ptr noundef nonnull dereferenceable(1) @.str.15) #8
  %82 = icmp ne ptr %81, null
  %83 = getelementptr inbounds i8, ptr %1, i64 1115
  %84 = zext i1 %82 to i8
  store i8 %84, ptr %83, align 1
  %85 = load ptr, ptr %3, align 8
  %86 = getelementptr inbounds i8, ptr %85, i64 8
  %87 = tail call noundef ptr @strstr(ptr noundef nonnull dereferenceable(1) %86, ptr noundef nonnull dereferenceable(1) @.str.16) #8
  %88 = icmp ne ptr %87, null
  %89 = getelementptr inbounds i8, ptr %1, i64 1117
  %90 = zext i1 %88 to i8
  store i8 %90, ptr %89, align 1
  %91 = load ptr, ptr %3, align 8
  %92 = getelementptr inbounds i8, ptr %91, i64 8
  %93 = tail call noundef ptr @strstr(ptr noundef nonnull dereferenceable(1) %92, ptr noundef nonnull dereferenceable(1) @.str.17) #8
  %94 = icmp ne ptr %93, null
  %95 = getelementptr inbounds i8, ptr %1, i64 1118
  %96 = zext i1 %94 to i8
  store i8 %96, ptr %95, align 2
  %97 = load ptr, ptr %3, align 8
  %98 = getelementptr inbounds i8, ptr %97, i64 8
  %99 = tail call noundef ptr @strstr(ptr noundef nonnull dereferenceable(1) %98, ptr noundef nonnull dereferenceable(1) @.str.18) #8
  %100 = icmp ne ptr %99, null
  %101 = getelementptr inbounds i8, ptr %1, i64 1119
  %102 = zext i1 %100 to i8
  store i8 %102, ptr %101, align 1
  br label %103

103:                                              ; preds = %55, %51, %48, %40, %32, %24, %16, %8
  ret void
}